target datalayout = "e-m:e-p270:32:32-p271:32:32-p272:64:64-i64:64-i128:128-f80:128-n8:16:32:64-S128"
target triple = "x86_64-pc-linux-gnu"

%struct.FreePageManager = type { %union.RelptrFreePageManager, %union.RelptrFreePageBtree, %union.RelptrFreePageSpanLeader, i32, i32, i64, i64, i64, i8, [129 x %union.RelptrFreePageSpanLeader] }
%union.RelptrFreePageManager = type { ptr }
%union.RelptrFreePageBtree = type { ptr }
%union.RelptrFreePageSpanLeader = type { ptr }

; Function Attrs: inlinehint nounwind uwtable
define internal i64 @relptr_store_eval(ptr noundef %0, ptr noundef %1) #2 {
  %3 = alloca i64, align 8
  %4 = alloca ptr, align 8
  %5 = alloca ptr, align 8
  store ptr %0, ptr %4, align 8
  store ptr %1, ptr %5, align 8
  %6 = load ptr, ptr %5, align 8
  %7 = icmp eq ptr %6, null
  br i1 %7, label %8, label %9

8:                                                ; preds = %2
  store i64 0, ptr %3, align 8
  br label %16

9:                                                ; preds = %2
  %10 = load ptr, ptr %5, align 8
  %11 = load ptr, ptr %4, align 8
  %12 = ptrtoint ptr %10 to i64
  %13 = ptrtoint ptr %11 to i64
  %14 = sub i64 %12, %13
  %15 = add i64 %14, 1
  store i64 %15, ptr %3, align 8
  br label %16

16:                                               ; preds = %9, %8
  %17 = load i64, ptr %3, align 8
  ret i64 %17
}

; Function Attrs: nounwind uwtable
define dso_local void @FreePageManagerInitialize(ptr noundef %0, ptr noundef %1) #0 {
  %3 = alloca ptr, align 8
  %4 = alloca ptr, align 8
  %5 = alloca i64, align 8
  %6 = alloca i32, align 4
  %7 = alloca i32, align 4
  %8 = alloca i32, align 4
  %9 = alloca i32, align 4
  %10 = alloca i32, align 4
  %11 = alloca i32, align 4
  %12 = alloca i32, align 4
  %13 = alloca i32, align 4
  store ptr %0, ptr %3, align 8
  store ptr %1, ptr %4, align 8
  call void @llvm.lifetime.start.p0(i64 8, ptr %5) #6
  br label %14

14:                                               ; preds = %2
  br label %15

15:                                               ; preds = %14
  br label %16

16:                                               ; preds = %15
  store i32 1, ptr %6, align 4
  br label %17

17:                                               ; preds = %16
  br label %18

18:                                               ; preds = %17
  br label %19

19:                                               ; preds = %18
  store i32 1, ptr %7, align 4
  %20 = load ptr, ptr %4, align 8
  %21 = load ptr, ptr %3, align 8
  %22 = call i64 @relptr_store_eval(ptr noundef %20, ptr noundef %21)
  %23 = load ptr, ptr %3, align 8
  %24 = getelementptr inbounds nuw %struct.FreePageManager, ptr %23, i32 0, i32 0
  store i64 %22, ptr %24, align 8
  br label %25

25:                                               ; preds = %19
  br label %26

26:                                               ; preds = %25
  br label %27

27:                                               ; preds = %26
  store i32 1, ptr %8, align 4
  br label %28

28:                                               ; preds = %27
  br label %29

29:                                               ; preds = %28
  br label %30

30:                                               ; preds = %29
  store i32 1, ptr %9, align 4
  %31 = load ptr, ptr %4, align 8
  %32 = call i64 @relptr_store_eval(ptr noundef %31, ptr noundef null)
  %33 = load ptr, ptr %3, align 8
  %34 = getelementptr inbounds nuw %struct.FreePageManager, ptr %33, i32 0, i32 1
  store i64 %32, ptr %34, align 8
  br label %35

35:                                               ; preds = %30
  br label %36

36:                                               ; preds = %35
  br label %37

37:                                               ; preds = %36
  store i32 1, ptr %10, align 4
  br label %38

38:                                               ; preds = %37
  br label %39

39:                                               ; preds = %38
  br label %40

40:                                               ; preds = %39
  store i32 1, ptr %11, align 4
  %41 = load ptr, ptr %4, align 8
  %42 = call i64 @relptr_store_eval(ptr noundef %41, ptr noundef null)
  %43 = load ptr, ptr %3, align 8
  %44 = getelementptr inbounds nuw %struct.FreePageManager, ptr %43, i32 0, i32 2
  store i64 %42, ptr %44, align 8
  %45 = load ptr, ptr %3, align 8
  %46 = getelementptr inbounds nuw %struct.FreePageManager, ptr %45, i32 0, i32 3
  store i32 0, ptr %46, align 8
  %47 = load ptr, ptr %3, align 8
  %48 = getelementptr inbounds nuw %struct.FreePageManager, ptr %47, i32 0, i32 4
  store i32 0, ptr %48, align 4
  %49 = load ptr, ptr %3, align 8
  %50 = getelementptr inbounds nuw %struct.FreePageManager, ptr %49, i32 0, i32 5
  store i64 0, ptr %50, align 8
  %51 = load ptr, ptr %3, align 8
  %52 = getelementptr inbounds nuw %struct.FreePageManager, ptr %51, i32 0, i32 6
  store i64 0, ptr %52, align 8
  %53 = load ptr, ptr %3, align 8
  %54 = getelementptr inbounds nuw %struct.FreePageManager, ptr %53, i32 0, i32 7
  store i64 0, ptr %54, align 8
  %55 = load ptr, ptr %3, align 8
  %56 = getelementptr inbounds nuw %struct.FreePageManager, ptr %55, i32 0, i32 8
  store i8 1, ptr %56, align 8
  store i64 0, ptr %5, align 8
  br label %57

57:                                               ; preds = %73, %40
  %58 = load i64, ptr %5, align 8
  %59 = icmp ult i64 %58, 129
  br i1 %59, label %60, label %76

60:                                               ; preds = %57
  br label %61

61:                                               ; preds = %60
  br label %62

62:                                               ; preds = %61
  br label %63

63:                                               ; preds = %62
  store i32 1, ptr %12, align 4
  br label %64

64:                                               ; preds = %63
  br label %65

65:                                               ; preds = %64
  br label %66

66:                                               ; preds = %65
  store i32 1, ptr %13, align 4
  %67 = load ptr, ptr %4, align 8
  %68 = call i64 @relptr_store_eval(ptr noundef %67, ptr noundef null)
  %69 = load ptr, ptr %3, align 8
  %70 = getelementptr inbounds nuw %struct.FreePageManager, ptr %69, i32 0, i32 9
  %71 = load i64, ptr %5, align 8
  %72 = getelementptr inbounds nuw [129 x %union.RelptrFreePageSpanLeader], ptr %70, i64 0, i64 %71
  store i64 %68, ptr %72, align 8
  br label %73

73:                                               ; preds = %66
  %74 = load i64, ptr %5, align 8
  %75 = add i64 %74, 1
  store i64 %75, ptr %5, align 8
  br label %57, !llvm.loop !4

76:                                               ; preds = %57
  call void @llvm.lifetime.end.p0(i64 8, ptr %5) #6
  ret void
}