; Function Attrs: mustprogress nofree norecurse nosync nounwind willreturn memory(argmem: write) uwtable
define dso_local void @FreePageManagerInitialize(ptr noundef %0, ptr noundef %1) local_unnamed_addr #0 {
  %3 = icmp eq ptr %0, null
  %4 = ptrtoint ptr %0 to i64
  %5 = ptrtoint ptr %1 to i64
  %reass.sub.i = add i64 %4, 1
  %6 = sub i64 %reass.sub.i, %5
  %.0.i = select i1 %3, i64 0, i64 %6
  store i64 %.0.i, ptr %0, align 8
  %7 = getelementptr inbounds nuw i8, ptr %0, i64 8
  %8 = getelementptr inbounds nuw i8, ptr %0, i64 56
  tail call void @llvm.memset.p0.i64(ptr noundef nonnull align 8 dereferenceable(48) %7, i8 0, i64 48, i1 false)
  store i8 1, ptr %8, align 8
  %9 = getelementptr inbounds nuw i8, ptr %0, i64 64
  tail call void @llvm.memset.p0.i64(ptr noundef nonnull align 8 dereferenceable(1032) %9, i8 0, i64 1032, i1 false)
  ret void
}